target datalayout = "e-m:e-p270:32:32-p271:32:32-p272:64:64-i64:64-i128:128-f80:128-n8:16:32:64-S128"
target triple = "x86_64-pc-linux-gnu"

%"class.cv::Mat" = type { i32, i32, i32, i32, ptr, ptr, ptr, ptr, ptr, ptr, %"struct.cv::MatSize", %"struct.cv::MatStep" }
%"struct.cv::MatSize" = type { ptr }
%"struct.cv::MatStep" = type { ptr, [2 x i64] }
%"class.cv::Size_" = type { i32, i32 }
%"struct.cv::impl::(anonymous namespace)::CvtHelper.7" = type { %"class.cv::Mat", %"class.cv::Mat", i32, i32, %"class.cv::Size_" }

; Function Attrs: mustprogress nounwind uwtable
define internal void @_ZN2cv4impl12_GLOBAL__N_19CvtHelperINS1_3SetILi1ELin1ELin1EEENS3_ILi3ELi4ELin1EEENS3_ILi0ELin1ELin1EEELNS1_10SizePolicyE1EED2Ev(ptr noundef nonnull align 8 dereferenceable(208) %0) unnamed_addr #2 align 2 {
  %2 = alloca ptr, align 8
  store ptr %0, ptr %2, align 8
  %3 = load ptr, ptr %2, align 8
  %4 = getelementptr inbounds %"struct.cv::impl::(anonymous namespace)::CvtHelper.7", ptr %3, i32 0, i32 1
  call void @_ZN2cv3MatD1Ev(ptr noundef nonnull align 8 dereferenceable(96) %4) #10
  %5 = getelementptr inbounds %"struct.cv::impl::(anonymous namespace)::CvtHelper.7", ptr %3, i32 0, i32 0
  call void @_ZN2cv3MatD1Ev(ptr noundef nonnull align 8 dereferenceable(96) %5) #10
  ret void
}

; Function Attrs: mustprogress nounwind uwtable
define linkonce_odr hidden noundef i64 @_ZNK2cv7MatStepcvmEv(ptr noundef nonnull align 8 dereferenceable(24) %0) #2 comdat align 2 {
  %2 = alloca ptr, align 8
  store ptr %0, ptr %2, align 8
  %3 = load ptr, ptr %2, align 8
  %4 = getelementptr inbounds %"struct.cv::MatStep", ptr %3, i32 0, i32 1
  %5 = getelementptr inbounds [2 x i64], ptr %4, i64 0, i64 0
  %6 = load i64, ptr %5, align 8
  ret i64 %6
}

; Function Attrs: mustprogress uwtable
define hidden void @_ZN2cv23cvtColorTwoPlaneYUV2BGRERKNS_11_InputArrayERKNS_12_OutputArrayEibi(ptr noundef nonnull align 8 dereferenceable(24) %0, ptr noundef nonnull align 8 dereferenceable(24) %1, i32 noundef %2, i1 noundef zeroext %3, i32 noundef %4) #0 personality ptr @__gxx_personality_v0 {
  %6 = alloca ptr, align 8
  %7 = alloca ptr, align 8
  %8 = alloca i32, align 4
  %9 = alloca i8, align 1
  %10 = alloca i32, align 4
  %11 = alloca %"struct.cv::impl::(anonymous namespace)::CvtHelper.7", align 8
  %12 = alloca ptr, align 8
  %13 = alloca i32, align 4
  store ptr %0, ptr %6, align 8
  store ptr %1, ptr %7, align 8
  store i32 %2, ptr %8, align 4
  %14 = zext i1 %3 to i8
  store i8 %14, ptr %9, align 1
  store i32 %4, ptr %10, align 4
  %15 = load i32, ptr %8, align 4
  %16 = icmp sle i32 %15, 0
  br i1 %16, label %17, label %18

17:                                               ; preds = %5
  store i32 3, ptr %8, align 4
  br label %18

18:                                               ; preds = %17, %5
  %19 = load ptr, ptr %6, align 8
  %20 = load ptr, ptr %7, align 8
  %21 = load i32, ptr %8, align 4
  call void @_ZN2cv4impl12_GLOBAL__N_19CvtHelperINS1_3SetILi1ELin1ELin1EEENS3_ILi3ELi4ELin1EEENS3_ILi0ELin1ELin1EEELNS1_10SizePolicyE1EEC2ERKNS_11_InputArrayERKNS_12_OutputArrayEi(ptr noundef nonnull align 8 dereferenceable(208) %11, ptr noundef nonnull align 8 dereferenceable(24) %19, ptr noundef nonnull align 8 dereferenceable(24) %20, i32 noundef %21)
  %22 = getelementptr inbounds %"struct.cv::impl::(anonymous namespace)::CvtHelper.7", ptr %11, i32 0, i32 0
  %23 = getelementptr inbounds %"class.cv::Mat", ptr %22, i32 0, i32 4
  %24 = load ptr, ptr %23, align 8
  %25 = getelementptr inbounds %"struct.cv::impl::(anonymous namespace)::CvtHelper.7", ptr %11, i32 0, i32 0
  %26 = getelementptr inbounds %"class.cv::Mat", ptr %25, i32 0, i32 11
  %27 = invoke noundef i64 @_ZNK2cv7MatStepcvmEv(ptr noundef nonnull align 8 dereferenceable(24) %26)
          to label %28 unwind label %47

28:                                               ; preds = %18
  %29 = getelementptr inbounds %"struct.cv::impl::(anonymous namespace)::CvtHelper.7", ptr %11, i32 0, i32 1
  %30 = getelementptr inbounds %"class.cv::Mat", ptr %29, i32 0, i32 4
  %31 = load ptr, ptr %30, align 8
  %32 = getelementptr inbounds %"struct.cv::impl::(anonymous namespace)::CvtHelper.7", ptr %11, i32 0, i32 1
  %33 = getelementptr inbounds %"class.cv::Mat", ptr %32, i32 0, i32 11
  %34 = invoke noundef i64 @_ZNK2cv7MatStepcvmEv(ptr noundef nonnull align 8 dereferenceable(24) %33)
          to label %35 unwind label %47

35:                                               ; preds = %28
  %36 = getelementptr inbounds %"struct.cv::impl::(anonymous namespace)::CvtHelper.7", ptr %11, i32 0, i32 1
  %37 = getelementptr inbounds %"class.cv::Mat", ptr %36, i32 0, i32 3
  %38 = load i32, ptr %37, align 4
  %39 = getelementptr inbounds %"struct.cv::impl::(anonymous namespace)::CvtHelper.7", ptr %11, i32 0, i32 1
  %40 = getelementptr inbounds %"class.cv::Mat", ptr %39, i32 0, i32 2
  %41 = load i32, ptr %40, align 8
  %42 = load i32, ptr %8, align 4
  %43 = load i8, ptr %9, align 1
  %44 = trunc i8 %43 to i1
  %45 = load i32, ptr %10, align 4
  invoke void @_ZN2cv3hal19cvtTwoPlaneYUVtoBGREPKhmPhmiiibi(ptr noundef %24, i64 noundef %27, ptr noundef %31, i64 noundef %34, i32 noundef %38, i32 noundef %41, i32 noundef %42, i1 noundef zeroext %44, i32 noundef %45)
          to label %46 unwind label %47

46:                                               ; preds = %35
  call void @_ZN2cv4impl12_GLOBAL__N_19CvtHelperINS1_3SetILi1ELin1ELin1EEENS3_ILi3ELi4ELin1EEENS3_ILi0ELin1ELin1EEELNS1_10SizePolicyE1EED2Ev(ptr noundef nonnull align 8 dereferenceable(208) %11) #10
  ret void

47:                                               ; preds = %35, %28, %18
  %48 = landingpad { ptr, i32 }
          cleanup
  %49 = extractvalue { ptr, i32 } %48, 0
  store ptr %49, ptr %12, align 8
  %50 = extractvalue { ptr, i32 } %48, 1
  store i32 %50, ptr %13, align 4
  call void @_ZN2cv4impl12_GLOBAL__N_19CvtHelperINS1_3SetILi1ELin1ELin1EEENS3_ILi3ELi4ELin1EEENS3_ILi0ELin1ELin1EEELNS1_10SizePolicyE1EED2Ev(ptr noundef nonnull align 8 dereferenceable(208) %11) #10
  br label %51

51:                                               ; preds = %47
  %52 = load ptr, ptr %12, align 8
  %53 = load i32, ptr %13, align 4
  %54 = insertvalue { ptr, i32 } poison, ptr %52, 0
  %55 = insertvalue { ptr, i32 } %54, i32 %53, 1
  resume { ptr, i32 } %55
}