; Function Attrs: mustprogress uwtable
define hidden void @_ZN2cv23cvtColorTwoPlaneYUV2BGRERKNS_11_InputArrayERKNS_12_OutputArrayEibi(ptr noundef nonnull align 8 dereferenceable(24) %0, ptr noundef nonnull align 8 dereferenceable(24) %1, i32 noundef %2, i1 noundef zeroext %3, i32 noundef %4) local_unnamed_addr #0 personality ptr @__gxx_personality_v0 {
  %6 = alloca %"struct.cv::impl::(anonymous namespace)::CvtHelper.7", align 8
  %7 = icmp slt i32 %2, 1
  %spec.store.select = select i1 %7, i32 3, i32 %2
  call fastcc void @_ZN2cv4impl12_GLOBAL__N_19CvtHelperINS1_3SetILi1ELin1ELin1EEENS3_ILi3ELi4ELin1EEENS3_ILi0ELin1ELin1EEELNS1_10SizePolicyE1EEC2ERKNS_11_InputArrayERKNS_12_OutputArrayEi(ptr noundef nonnull align 8 dereferenceable(208) %6, ptr noundef nonnull align 8 dereferenceable(24) %0, ptr noundef nonnull align 8 dereferenceable(24) %1, i32 noundef %spec.store.select)
  %8 = getelementptr inbounds i8, ptr %6, i64 16
  %9 = load ptr, ptr %8, align 8
  %10 = getelementptr inbounds i8, ptr %6, i64 80
  %11 = load i64, ptr %10, align 8
  %12 = getelementptr inbounds i8, ptr %6, i64 112
  %13 = load ptr, ptr %12, align 8
  %14 = getelementptr inbounds i8, ptr %6, i64 176
  %15 = load i64, ptr %14, align 8
  %16 = getelementptr inbounds i8, ptr %6, i64 108
  %17 = load i32, ptr %16, align 4
  %18 = getelementptr inbounds i8, ptr %6, i64 104
  %19 = load i32, ptr %18, align 8
  invoke void @_ZN2cv3hal19cvtTwoPlaneYUVtoBGREPKhmPhmiiibi(ptr noundef %9, i64 noundef %11, ptr noundef %13, i64 noundef %15, i32 noundef %17, i32 noundef %19, i32 noundef %spec.store.select, i1 noundef zeroext %3, i32 noundef %4)
          to label %20 unwind label %22

20:                                               ; preds = %5
  %21 = getelementptr inbounds i8, ptr %6, i64 96
  call void @_ZN2cv3MatD1Ev(ptr noundef nonnull align 8 dereferenceable(96) %21) #12
  call void @_ZN2cv3MatD1Ev(ptr noundef nonnull align 8 dereferenceable(96) %6) #12
  ret void

22:                                               ; preds = %5
  %23 = landingpad { ptr, i32 }
          cleanup
  %24 = getelementptr inbounds i8, ptr %6, i64 96
  call void @_ZN2cv3MatD1Ev(ptr noundef nonnull align 8 dereferenceable(96) %24) #12
  call void @_ZN2cv3MatD1Ev(ptr noundef nonnull align 8 dereferenceable(96) %6) #12
  resume { ptr, i32 } %23
}